target datalayout = "e-m:e-p270:32:32-p271:32:32-p272:64:64-i64:64-i128:128-f80:128-n8:16:32:64-S128"
target triple = "x86_64-pc-linux-gnu"

%"class.std::__cxx11::basic_string" = type { %"struct.std::__cxx11::basic_string<char>::_Alloc_hider", i64, %union.anon }
%"struct.std::__cxx11::basic_string<char>::_Alloc_hider" = type { ptr }
%union.anon = type { i64, [8 x i8] }
%class.cmDependsFortran = type { %class.cmDepends, %"class.std::__cxx11::basic_string", %"class.std::__cxx11::basic_string", %"class.std::__cxx11::basic_string", %"class.std::__cxx11::basic_string", %"class.std::set", %"class.std::unique_ptr" }
%class.cmDepends = type { ptr, ptr, i8, ptr, %"class.std::__cxx11::basic_string", %"class.std::__cxx11::basic_string", %"class.std::vector" }
%"class.std::vector" = type { %"struct.std::_Vector_base" }
%"struct.std::_Vector_base" = type { %"struct.std::_Vector_base<std::__cxx11::basic_string<char>, std::allocator<std::__cxx11::basic_string<char>>>::_Vector_impl" }
%"struct.std::_Vector_base<std::__cxx11::basic_string<char>, std::allocator<std::__cxx11::basic_string<char>>>::_Vector_impl" = type { %"struct.std::_Vector_base<std::__cxx11::basic_string<char>, std::allocator<std::__cxx11::basic_string<char>>>::_Vector_impl_data" }
%"struct.std::_Vector_base<std::__cxx11::basic_string<char>, std::allocator<std::__cxx11::basic_string<char>>>::_Vector_impl_data" = type { ptr, ptr, ptr }
%"class.std::set" = type { %"class.std::_Rb_tree" }
%"class.std::_Rb_tree" = type { %"struct.std::_Rb_tree<std::__cxx11::basic_string<char>, std::__cxx11::basic_string<char>, std::_Identity<std::__cxx11::basic_string<char>>, std::less<std::__cxx11::basic_string<char>>>::_Rb_tree_impl" }
%"struct.std::_Rb_tree<std::__cxx11::basic_string<char>, std::__cxx11::basic_string<char>, std::_Identity<std::__cxx11::basic_string<char>>, std::less<std::__cxx11::basic_string<char>>>::_Rb_tree_impl" = type { %"struct.std::_Rb_tree_key_compare", %"struct.std::_Rb_tree_header" }
%"struct.std::_Rb_tree_key_compare" = type { %"struct.std::less" }
%"struct.std::less" = type { i8 }
%"struct.std::_Rb_tree_header" = type { %"struct.std::_Rb_tree_node_base", i64 }
%"struct.std::_Rb_tree_node_base" = type { i32, ptr, ptr, ptr }
%"class.std::unique_ptr" = type { %"struct.std::__uniq_ptr_data" }
%"struct.std::__uniq_ptr_data" = type { %"class.std::__uniq_ptr_impl" }
%"class.std::__uniq_ptr_impl" = type { %"class.std::tuple" }
%"class.std::tuple" = type { %"struct.std::_Tuple_impl" }
%"struct.std::_Tuple_impl" = type { %"struct.std::_Head_base.7" }
%"struct.std::_Head_base.7" = type { ptr }

; Function Attrs: mustprogress nounwind uwtable
define linkonce_odr dso_local noundef nonnull align 1 dereferenceable(1) ptr @_ZNSt10_Head_baseILm1ESt14default_deleteI25cmDependsFortranInternalsELb1EE7_M_headERS3_(ptr noundef nonnull align 1 dereferenceable(1) %0) #5 comdat align 2 {
  %2 = alloca ptr, align 8
  store ptr %0, ptr %2, align 8
  %3 = load ptr, ptr %2, align 8
  ret ptr %3
}

; Function Attrs: mustprogress nounwind uwtable
define linkonce_odr dso_local noundef nonnull align 1 dereferenceable(1) ptr @_ZNSt11_Tuple_implILm1EJSt14default_deleteI25cmDependsFortranInternalsEEE7_M_headERS3_(ptr noundef nonnull align 1 dereferenceable(1) %0) #5 comdat align 2 {
  %2 = alloca ptr, align 8
  store ptr %0, ptr %2, align 8
  %3 = load ptr, ptr %2, align 8
  %4 = call noundef nonnull align 1 dereferenceable(1) ptr @_ZNSt10_Head_baseILm1ESt14default_deleteI25cmDependsFortranInternalsELb1EE7_M_headERS3_(ptr noundef nonnull align 1 dereferenceable(1) %3) #3
  ret ptr %4
}

; Function Attrs: mustprogress nounwind uwtable
define linkonce_odr dso_local noundef nonnull align 8 dereferenceable(8) ptr @_ZNSt10_Head_baseILm0EP25cmDependsFortranInternalsLb0EE7_M_headERS2_(ptr noundef nonnull align 8 dereferenceable(8) %0) #5 comdat align 2 {
  %2 = alloca ptr, align 8
  store ptr %0, ptr %2, align 8
  %3 = load ptr, ptr %2, align 8
  %4 = getelementptr inbounds %"struct.std::_Head_base.7", ptr %3, i32 0, i32 0
  ret ptr %4
}

; Function Attrs: mustprogress nounwind uwtable
define linkonce_odr dso_local void @_ZNSt15__new_allocatorISt13_Rb_tree_nodeINSt7__cxx1112basic_stringIcSt11char_traitsIcESaIcEEEEED2Ev(ptr noundef nonnull align 1 dereferenceable(1) %0) unnamed_addr #5 comdat align 2 {
  %2 = alloca ptr, align 8
  store ptr %0, ptr %2, align 8
  ret void
}

; Function Attrs: mustprogress nounwind uwtable
define linkonce_odr dso_local noundef nonnull align 1 dereferenceable(1) ptr @_ZSt12__get_helperILm1ESt14default_deleteI25cmDependsFortranInternalsEJEERT0_RSt11_Tuple_implIXT_EJS3_DpT1_EE(ptr noundef nonnull align 1 dereferenceable(1) %0) #5 comdat {
  %2 = alloca ptr, align 8
  store ptr %0, ptr %2, align 8
  %3 = load ptr, ptr %2, align 8
  %4 = call noundef nonnull align 1 dereferenceable(1) ptr @_ZNSt11_Tuple_implILm1EJSt14default_deleteI25cmDependsFortranInternalsEEE7_M_headERS3_(ptr noundef nonnull align 1 dereferenceable(1) %3) #3
  ret ptr %4
}

; Function Attrs: mustprogress nounwind uwtable
define linkonce_odr dso_local noundef nonnull align 8 dereferenceable(8) ptr @_ZNSt11_Tuple_implILm0EJP25cmDependsFortranInternalsSt14default_deleteIS0_EEE7_M_headERS4_(ptr noundef nonnull align 8 dereferenceable(8) %0) #5 comdat align 2 {
  %2 = alloca ptr, align 8
  store ptr %0, ptr %2, align 8
  %3 = load ptr, ptr %2, align 8
  %4 = call noundef nonnull align 8 dereferenceable(8) ptr @_ZNSt10_Head_baseILm0EP25cmDependsFortranInternalsLb0EE7_M_headERS2_(ptr noundef nonnull align 8 dereferenceable(8) %3) #3
  ret ptr %4
}

; Function Attrs: mustprogress nounwind uwtable
define linkonce_odr dso_local void @_ZNSaISt13_Rb_tree_nodeINSt7__cxx1112basic_stringIcSt11char_traitsIcESaIcEEEEED2Ev(ptr noundef nonnull align 1 dereferenceable(1) %0) unnamed_addr #5 comdat align 2 {
  %2 = alloca ptr, align 8
  store ptr %0, ptr %2, align 8
  %3 = load ptr, ptr %2, align 8
  call void @_ZNSt15__new_allocatorISt13_Rb_tree_nodeINSt7__cxx1112basic_stringIcSt11char_traitsIcESaIcEEEEED2Ev(ptr noundef nonnull align 1 dereferenceable(1) %3) #3
  ret void
}

; Function Attrs: mustprogress nounwind uwtable
define linkonce_odr dso_local noundef ptr @_ZNKSt8_Rb_treeINSt7__cxx1112basic_stringIcSt11char_traitsIcESaIcEEES5_St9_IdentityIS5_ESt4lessIS5_ESaIS5_EE9_M_mbeginEv(ptr noundef nonnull align 8 dereferenceable(48) %0) #5 comdat align 2 {
  %2 = alloca ptr, align 8
  store ptr %0, ptr %2, align 8
  %3 = load ptr, ptr %2, align 8
  %4 = getelementptr inbounds %"class.std::_Rb_tree", ptr %3, i32 0, i32 0
  %5 = getelementptr inbounds i8, ptr %4, i64 8
  %6 = getelementptr inbounds %"struct.std::_Rb_tree_header", ptr %5, i32 0, i32 0
  %7 = getelementptr inbounds %"struct.std::_Rb_tree_node_base", ptr %6, i32 0, i32 1
  %8 = load ptr, ptr %7, align 8
  ret ptr %8
}

; Function Attrs: mustprogress nounwind uwtable
define linkonce_odr dso_local noundef nonnull align 1 dereferenceable(1) ptr @_ZSt3getILm1EJP25cmDependsFortranInternalsSt14default_deleteIS0_EEERNSt13tuple_elementIXT_ESt5tupleIJDpT0_EEE4typeERS8_(ptr noundef nonnull align 8 dereferenceable(8) %0) #5 comdat {
  %2 = alloca ptr, align 8
  store ptr %0, ptr %2, align 8
  %3 = load ptr, ptr %2, align 8
  %4 = call noundef nonnull align 1 dereferenceable(1) ptr @_ZSt12__get_helperILm1ESt14default_deleteI25cmDependsFortranInternalsEJEERT0_RSt11_Tuple_implIXT_EJS3_DpT1_EE(ptr noundef nonnull align 1 dereferenceable(1) %3) #3
  ret ptr %4
}

; Function Attrs: mustprogress nounwind uwtable
define linkonce_odr dso_local noundef nonnull align 8 dereferenceable(8) ptr @_ZSt12__get_helperILm0EP25cmDependsFortranInternalsJSt14default_deleteIS0_EEERT0_RSt11_Tuple_implIXT_EJS4_DpT1_EE(ptr noundef nonnull align 8 dereferenceable(8) %0) #5 comdat {
  %2 = alloca ptr, align 8
  store ptr %0, ptr %2, align 8
  %3 = load ptr, ptr %2, align 8
  %4 = call noundef nonnull align 8 dereferenceable(8) ptr @_ZNSt11_Tuple_implILm0EJP25cmDependsFortranInternalsSt14default_deleteIS0_EEE7_M_headERS4_(ptr noundef nonnull align 8 dereferenceable(8) %3) #3
  ret ptr %4
}

; Function Attrs: mustprogress nounwind uwtable
define linkonce_odr dso_local void @_ZNSt8_Rb_treeINSt7__cxx1112basic_stringIcSt11char_traitsIcESaIcEEES5_St9_IdentityIS5_ESt4lessIS5_ESaIS5_EE13_Rb_tree_implIS9_Lb1EED2Ev(ptr noundef nonnull align 8 dereferenceable(48) %0) unnamed_addr #5 comdat align 2 {
  %2 = alloca ptr, align 8
  store ptr %0, ptr %2, align 8
  %3 = load ptr, ptr %2, align 8
  call void @_ZNSaISt13_Rb_tree_nodeINSt7__cxx1112basic_stringIcSt11char_traitsIcESaIcEEEEED2Ev(ptr noundef nonnull align 1 dereferenceable(1) %3) #3
  ret void
}

; Function Attrs: mustprogress nounwind uwtable
define linkonce_odr dso_local noundef ptr @_ZNSt8_Rb_treeINSt7__cxx1112basic_stringIcSt11char_traitsIcESaIcEEES5_St9_IdentityIS5_ESt4lessIS5_ESaIS5_EE8_M_beginEv(ptr noundef nonnull align 8 dereferenceable(48) %0) #5 comdat align 2 {
  %2 = alloca ptr, align 8
  store ptr %0, ptr %2, align 8
  %3 = load ptr, ptr %2, align 8
  %4 = call noundef ptr @_ZNKSt8_Rb_treeINSt7__cxx1112basic_stringIcSt11char_traitsIcESaIcEEES5_St9_IdentityIS5_ESt4lessIS5_ESaIS5_EE9_M_mbeginEv(ptr noundef nonnull align 8 dereferenceable(48) %3) #3
  ret ptr %4
}

; Function Attrs: mustprogress nounwind uwtable
define linkonce_odr dso_local noundef nonnull align 1 dereferenceable(1) ptr @_ZNSt15__uniq_ptr_implI25cmDependsFortranInternalsSt14default_deleteIS0_EE10_M_deleterEv(ptr noundef nonnull align 8 dereferenceable(8) %0) #5 comdat align 2 {
  %2 = alloca ptr, align 8
  store ptr %0, ptr %2, align 8
  %3 = load ptr, ptr %2, align 8
  %4 = getelementptr inbounds %"class.std::__uniq_ptr_impl", ptr %3, i32 0, i32 0
  %5 = call noundef nonnull align 1 dereferenceable(1) ptr @_ZSt3getILm1EJP25cmDependsFortranInternalsSt14default_deleteIS0_EEERNSt13tuple_elementIXT_ESt5tupleIJDpT0_EEE4typeERS8_(ptr noundef nonnull align 8 dereferenceable(8) %4) #3
  ret ptr %5
}

; Function Attrs: mustprogress nounwind uwtable
define linkonce_odr dso_local noundef nonnull align 8 dereferenceable(8) ptr @_ZSt3getILm0EJP25cmDependsFortranInternalsSt14default_deleteIS0_EEERNSt13tuple_elementIXT_ESt5tupleIJDpT0_EEE4typeERS8_(ptr noundef nonnull align 8 dereferenceable(8) %0) #5 comdat {
  %2 = alloca ptr, align 8
  store ptr %0, ptr %2, align 8
  %3 = load ptr, ptr %2, align 8
  %4 = call noundef nonnull align 8 dereferenceable(8) ptr @_ZSt12__get_helperILm0EP25cmDependsFortranInternalsJSt14default_deleteIS0_EEERT0_RSt11_Tuple_implIXT_EJS4_DpT1_EE(ptr noundef nonnull align 8 dereferenceable(8) %3) #3
  ret ptr %4
}

; Function Attrs: mustprogress nounwind uwtable
define linkonce_odr dso_local void @_ZNSt8_Rb_treeINSt7__cxx1112basic_stringIcSt11char_traitsIcESaIcEEES5_St9_IdentityIS5_ESt4lessIS5_ESaIS5_EED2Ev(ptr noundef nonnull align 8 dereferenceable(48) %0) unnamed_addr #5 comdat align 2 personality ptr @__gxx_personality_v0 {
  %2 = alloca ptr, align 8
  store ptr %0, ptr %2, align 8
  %3 = load ptr, ptr %2, align 8
  %4 = call noundef ptr @_ZNSt8_Rb_treeINSt7__cxx1112basic_stringIcSt11char_traitsIcESaIcEEES5_St9_IdentityIS5_ESt4lessIS5_ESaIS5_EE8_M_beginEv(ptr noundef nonnull align 8 dereferenceable(48) %3) #3
  invoke void @_ZNSt8_Rb_treeINSt7__cxx1112basic_stringIcSt11char_traitsIcESaIcEEES5_St9_IdentityIS5_ESt4lessIS5_ESaIS5_EE8_M_eraseEPSt13_Rb_tree_nodeIS5_E(ptr noundef nonnull align 8 dereferenceable(48) %3, ptr noundef %4)
          to label %5 unwind label %7

5:                                                ; preds = %1
  %6 = getelementptr inbounds %"class.std::_Rb_tree", ptr %3, i32 0, i32 0
  call void @_ZNSt8_Rb_treeINSt7__cxx1112basic_stringIcSt11char_traitsIcESaIcEEES5_St9_IdentityIS5_ESt4lessIS5_ESaIS5_EE13_Rb_tree_implIS9_Lb1EED2Ev(ptr noundef nonnull align 8 dereferenceable(48) %6) #3
  ret void

7:                                                ; preds = %1
  %8 = landingpad { ptr, i32 }
          catch ptr null
  %9 = extractvalue { ptr, i32 } %8, 0
  call void @__clang_call_terminate(ptr %9) #17
  unreachable
}

; Function Attrs: mustprogress nounwind uwtable
define linkonce_odr dso_local noundef nonnull align 1 dereferenceable(1) ptr @_ZNSt10unique_ptrI25cmDependsFortranInternalsSt14default_deleteIS0_EE11get_deleterEv(ptr noundef nonnull align 8 dereferenceable(8) %0) #5 comdat align 2 {
  %2 = alloca ptr, align 8
  store ptr %0, ptr %2, align 8
  %3 = load ptr, ptr %2, align 8
  %4 = getelementptr inbounds %"class.std::unique_ptr", ptr %3, i32 0, i32 0
  %5 = call noundef nonnull align 1 dereferenceable(1) ptr @_ZNSt15__uniq_ptr_implI25cmDependsFortranInternalsSt14default_deleteIS0_EE10_M_deleterEv(ptr noundef nonnull align 8 dereferenceable(8) %4) #3
  ret ptr %5
}

; Function Attrs: mustprogress nounwind uwtable
define linkonce_odr dso_local noundef nonnull align 8 dereferenceable(8) ptr @_ZNSt15__uniq_ptr_implI25cmDependsFortranInternalsSt14default_deleteIS0_EE6_M_ptrEv(ptr noundef nonnull align 8 dereferenceable(8) %0) #5 comdat align 2 {
  %2 = alloca ptr, align 8
  store ptr %0, ptr %2, align 8
  %3 = load ptr, ptr %2, align 8
  %4 = getelementptr inbounds %"class.std::__uniq_ptr_impl", ptr %3, i32 0, i32 0
  %5 = call noundef nonnull align 8 dereferenceable(8) ptr @_ZSt3getILm0EJP25cmDependsFortranInternalsSt14default_deleteIS0_EEERNSt13tuple_elementIXT_ESt5tupleIJDpT0_EEE4typeERS8_(ptr noundef nonnull align 8 dereferenceable(8) %4) #3
  ret ptr %5
}

; Function Attrs: mustprogress nounwind uwtable
define linkonce_odr dso_local void @_ZNSt3setINSt7__cxx1112basic_stringIcSt11char_traitsIcESaIcEEESt4lessIS5_ESaIS5_EED2Ev(ptr noundef nonnull align 8 dereferenceable(48) %0) unnamed_addr #5 comdat align 2 {
  %2 = alloca ptr, align 8
  store ptr %0, ptr %2, align 8
  %3 = load ptr, ptr %2, align 8
  %4 = getelementptr inbounds %"class.std::set", ptr %3, i32 0, i32 0
  call void @_ZNSt8_Rb_treeINSt7__cxx1112basic_stringIcSt11char_traitsIcESaIcEEES5_St9_IdentityIS5_ESt4lessIS5_ESaIS5_EED2Ev(ptr noundef nonnull align 8 dereferenceable(48) %4) #3
  ret void
}

; Function Attrs: mustprogress nounwind uwtable
define linkonce_odr dso_local void @_ZNSt10unique_ptrI25cmDependsFortranInternalsSt14default_deleteIS0_EED2Ev(ptr noundef nonnull align 8 dereferenceable(8) %0) unnamed_addr #5 comdat align 2 personality ptr @__gxx_personality_v0 {
  %2 = alloca ptr, align 8
  %3 = alloca ptr, align 8
  store ptr %0, ptr %2, align 8
  %4 = load ptr, ptr %2, align 8
  %5 = getelementptr inbounds %"class.std::unique_ptr", ptr %4, i32 0, i32 0
  %6 = call noundef nonnull align 8 dereferenceable(8) ptr @_ZNSt15__uniq_ptr_implI25cmDependsFortranInternalsSt14default_deleteIS0_EE6_M_ptrEv(ptr noundef nonnull align 8 dereferenceable(8) %5) #3
  store ptr %6, ptr %3, align 8
  %7 = load ptr, ptr %3, align 8
  %8 = load ptr, ptr %7, align 8
  %9 = icmp ne ptr %8, null
  br i1 %9, label %10, label %15

10:                                               ; preds = %1
  %11 = call noundef nonnull align 1 dereferenceable(1) ptr @_ZNSt10unique_ptrI25cmDependsFortranInternalsSt14default_deleteIS0_EE11get_deleterEv(ptr noundef nonnull align 8 dereferenceable(8) %4) #3
  %12 = load ptr, ptr %3, align 8
  %13 = load ptr, ptr %12, align 8
  invoke void @_ZNKSt14default_deleteI25cmDependsFortranInternalsEclEPS0_(ptr noundef nonnull align 1 dereferenceable(1) %11, ptr noundef %13)
          to label %14 unwind label %17

14:                                               ; preds = %10
  br label %15

15:                                               ; preds = %14, %1
  %16 = load ptr, ptr %3, align 8
  store ptr null, ptr %16, align 8
  ret void

17:                                               ; preds = %10
  %18 = landingpad { ptr, i32 }
          catch ptr null
  %19 = extractvalue { ptr, i32 } %18, 0
  call void @__clang_call_terminate(ptr %19) #17
  unreachable
}

; Function Attrs: mustprogress nounwind uwtable
define dso_local void @_ZN16cmDependsFortranD2Ev(ptr noundef nonnull align 8 dereferenceable(304) %0) unnamed_addr #5 align 2 {
  %2 = alloca ptr, align 8
  store ptr %0, ptr %2, align 8
  %3 = load ptr, ptr %2, align 8
  store ptr getelementptr inbounds ({ [7 x ptr] }, ptr @_ZTV16cmDependsFortran, i32 0, i32 0, i32 2), ptr %3, align 8
  %4 = getelementptr inbounds %class.cmDependsFortran, ptr %3, i32 0, i32 6
  call void @_ZNSt10unique_ptrI25cmDependsFortranInternalsSt14default_deleteIS0_EED2Ev(ptr noundef nonnull align 8 dereferenceable(8) %4) #3
  %5 = getelementptr inbounds %class.cmDependsFortran, ptr %3, i32 0, i32 5
  call void @_ZNSt3setINSt7__cxx1112basic_stringIcSt11char_traitsIcESaIcEEESt4lessIS5_ESaIS5_EED2Ev(ptr noundef nonnull align 8 dereferenceable(48) %5) #3
  %6 = getelementptr inbounds %class.cmDependsFortran, ptr %3, i32 0, i32 4
  call void @_ZNSt7__cxx1112basic_stringIcSt11char_traitsIcESaIcEED1Ev(ptr noundef nonnull align 8 dereferenceable(32) %6) #3
  %7 = getelementptr inbounds %class.cmDependsFortran, ptr %3, i32 0, i32 3
  call void @_ZNSt7__cxx1112basic_stringIcSt11char_traitsIcESaIcEED1Ev(ptr noundef nonnull align 8 dereferenceable(32) %7) #3
  %8 = getelementptr inbounds %class.cmDependsFortran, ptr %3, i32 0, i32 2
  call void @_ZNSt7__cxx1112basic_stringIcSt11char_traitsIcESaIcEED1Ev(ptr noundef nonnull align 8 dereferenceable(32) %8) #3
  %9 = getelementptr inbounds %class.cmDependsFortran, ptr %3, i32 0, i32 1
  call void @_ZNSt7__cxx1112basic_stringIcSt11char_traitsIcESaIcEED1Ev(ptr noundef nonnull align 8 dereferenceable(32) %9) #3
  call void @_ZN9cmDependsD2Ev(ptr noundef nonnull align 8 dereferenceable(120) %3) #3
  ret void
}