; Function Attrs: mustprogress nounwind uwtable
define dso_local void @_ZN16cmDependsFortranD2Ev(ptr noundef nonnull align 8 dereferenceable(304) %0) unnamed_addr #5 align 2 personality ptr @__gxx_personality_v0 {
  store ptr getelementptr inbounds ({ [7 x ptr] }, ptr @_ZTV16cmDependsFortran, i64 0, i32 0, i64 2), ptr %0, align 8
  %2 = getelementptr inbounds i8, ptr %0, i64 296
  %3 = load ptr, ptr %2, align 8
  %.not.i = icmp eq ptr %3, null
  br i1 %.not.i, label %_ZNSt10unique_ptrI25cmDependsFortranInternalsSt14default_deleteIS0_EED2Ev.exit, label %4

4:                                                ; preds = %1
  tail call void @_ZNKSt14default_deleteI25cmDependsFortranInternalsEclEPS0_(ptr noundef nonnull align 1 dereferenceable(1) %2, ptr noundef nonnull %3)
  br label %_ZNSt10unique_ptrI25cmDependsFortranInternalsSt14default_deleteIS0_EED2Ev.exit

_ZNSt10unique_ptrI25cmDependsFortranInternalsSt14default_deleteIS0_EED2Ev.exit: ; preds = %1, %4
  store ptr null, ptr %2, align 8
  %5 = getelementptr inbounds i8, ptr %0, i64 248
  %6 = getelementptr inbounds i8, ptr %0, i64 264
  %7 = load ptr, ptr %6, align 8
  invoke void @_ZNSt8_Rb_treeINSt7__cxx1112basic_stringIcSt11char_traitsIcESaIcEEES5_St9_IdentityIS5_ESt4lessIS5_ESaIS5_EE8_M_eraseEPSt13_Rb_tree_nodeIS5_E(ptr noundef nonnull align 8 dereferenceable(48) %5, ptr noundef %7)
          to label %_ZNSt3setINSt7__cxx1112basic_stringIcSt11char_traitsIcESaIcEEESt4lessIS5_ESaIS5_EED2Ev.exit unwind label %8

8:                                                ; preds = %_ZNSt10unique_ptrI25cmDependsFortranInternalsSt14default_deleteIS0_EED2Ev.exit
  %9 = landingpad { ptr, i32 }
          catch ptr null
  %10 = extractvalue { ptr, i32 } %9, 0
  tail call void @__clang_call_terminate(ptr %10) #18
  unreachable

_ZNSt3setINSt7__cxx1112basic_stringIcSt11char_traitsIcESaIcEEESt4lessIS5_ESaIS5_EED2Ev.exit: ; preds = %_ZNSt10unique_ptrI25cmDependsFortranInternalsSt14default_deleteIS0_EED2Ev.exit
  %11 = getelementptr inbounds i8, ptr %0, i64 216
  tail call void @_ZNSt7__cxx1112basic_stringIcSt11char_traitsIcESaIcEED1Ev(ptr noundef nonnull align 8 dereferenceable(32) %11) #15
  %12 = getelementptr inbounds i8, ptr %0, i64 184
  tail call void @_ZNSt7__cxx1112basic_stringIcSt11char_traitsIcESaIcEED1Ev(ptr noundef nonnull align 8 dereferenceable(32) %12) #15
  %13 = getelementptr inbounds i8, ptr %0, i64 152
  tail call void @_ZNSt7__cxx1112basic_stringIcSt11char_traitsIcESaIcEED1Ev(ptr noundef nonnull align 8 dereferenceable(32) %13) #15
  %14 = getelementptr inbounds i8, ptr %0, i64 120
  tail call void @_ZNSt7__cxx1112basic_stringIcSt11char_traitsIcESaIcEED1Ev(ptr noundef nonnull align 8 dereferenceable(32) %14) #15
  tail call void @_ZN9cmDependsD2Ev(ptr noundef nonnull align 8 dereferenceable(120) %0) #15
  ret void
}